target datalayout = "e-m:e-p270:32:32-p271:32:32-p272:64:64-i64:64-i128:128-f80:128-n8:16:32:64-S128"
target triple = "x86_64-pc-linux-gnu"

%struct.TuplesortPublic = type { ptr, ptr, ptr, ptr, ptr, ptr, ptr, ptr, ptr, i8, i32, ptr, ptr, i32, i8, ptr }
%struct.SortTuple = type { ptr, i64, i8, i32 }

@CurrentMemoryContext = external global ptr, align 8

; Function Attrs: inlinehint nounwind uwtable
define internal ptr @MemoryContextSwitchTo(ptr noundef %0) #3 {
  %2 = alloca ptr, align 8
  %3 = alloca ptr, align 8
  store ptr %0, ptr %2, align 8
  call void @llvm.lifetime.start.p0(i64 8, ptr %3) #6
  %4 = load ptr, ptr @CurrentMemoryContext, align 8
  store ptr %4, ptr %3, align 8
  %5 = load ptr, ptr %2, align 8
  store ptr %5, ptr @CurrentMemoryContext, align 8
  %6 = load ptr, ptr %3, align 8
  call void @llvm.lifetime.end.p0(i64 8, ptr %3) #6
  ret ptr %6
}

; Function Attrs: nounwind uwtable
define dso_local ptr @tuplesort_getindextuple(ptr noundef %0, i1 noundef zeroext %1) #0 {
  %3 = alloca ptr, align 8
  %4 = alloca i8, align 1
  %5 = alloca ptr, align 8
  %6 = alloca ptr, align 8
  %7 = alloca %struct.SortTuple, align 8
  store ptr %0, ptr %3, align 8
  %8 = zext i1 %1 to i8
  store i8 %8, ptr %4, align 1
  call void @llvm.lifetime.start.p0(i64 8, ptr %5) #6
  %9 = load ptr, ptr %3, align 8
  store ptr %9, ptr %5, align 8
  call void @llvm.lifetime.start.p0(i64 8, ptr %6) #6
  %10 = load ptr, ptr %5, align 8
  %11 = getelementptr inbounds nuw %struct.TuplesortPublic, ptr %10, i32 0, i32 7
  %12 = load ptr, ptr %11, align 8
  %13 = call ptr @MemoryContextSwitchTo(ptr noundef %12)
  store ptr %13, ptr %6, align 8
  call void @llvm.lifetime.start.p0(i64 24, ptr %7) #6
  %14 = load ptr, ptr %3, align 8
  %15 = load i8, ptr %4, align 1, !range !4, !noundef !5
  %16 = trunc i8 %15 to i1
  %17 = call zeroext i1 @tuplesort_gettuple_common(ptr noundef %14, i1 noundef zeroext %16, ptr noundef %7)
  br i1 %17, label %20, label %18

18:                                               ; preds = %2
  %19 = getelementptr inbounds nuw %struct.SortTuple, ptr %7, i32 0, i32 0
  store ptr null, ptr %19, align 8
  br label %20

20:                                               ; preds = %18, %2
  %21 = load ptr, ptr %6, align 8
  %22 = call ptr @MemoryContextSwitchTo(ptr noundef %21)
  %23 = getelementptr inbounds nuw %struct.SortTuple, ptr %7, i32 0, i32 0
  %24 = load ptr, ptr %23, align 8
  call void @llvm.lifetime.end.p0(i64 24, ptr %7) #6
  call void @llvm.lifetime.end.p0(i64 8, ptr %6) #6
  call void @llvm.lifetime.end.p0(i64 8, ptr %5) #6
  ret ptr %24
}